Certificate:
    Data:
        Version: 3 (0x2)
        Serial Number: 1 (0x1)
    Signature Algorithm: sha256WithRSAEncryption
        Issuer: C=CN, ST=BJ, L=BJ, O=qisoft Ltd, OU=qisoft, CN=Qiwan/emailAddress=wangkefengname@163.com
        Validity
            Not Before: Mar  1 07:08:21 2019 GMT
            Not After : Feb 26 07:08:21 2029 GMT
        Subject: C=CN, ST=BJ, O=qisoft Ltd, OU=qisoft, CN=www.qisoft.com/emailAddress=wangkefengname@163.com
        Subject Public Key Info:
            Public Key Algorithm: rsaEncryption
                Public-Key: (2048 bit)
                Modulus:
                    00:d1:26:f4:ce:8f:79:83:14:4d:ac:c1:e3:30:f5:
                    ad:e8:7b:64:c4:94:b3:e6:bf:97:3d:40:8b:c3:96:
                    f9:e5:10:4a:67:f8:48:8a:16:8e:d9:2c:44:bb:f6:
                    cb:2d:14:13:d3:93:59:9f:1b:11:7f:27:63:46:87:
                    36:45:28:f2:a9:78:33:33:ab:69:81:29:74:30:61:
                    5c:51:e1:75:4c:83:51:bb:74:bb:94:31:95:c2:0e:
                    5a:21:61:93:30:86:fe:44:66:9d:ba:9e:6e:35:0f:
                    c7:34:f6:14:27:f8:f6:41:03:96:87:dc:42:5f:f2:
                    96:95:cb:e7:51:33:82:bb:c7:19:b1:44:89:8d:4d:
                    4c:4f:e1:24:f4:26:99:40:54:dc:94:1c:f1:fd:00:
                    e8:ed:b1:49:9c:61:b9:de:2a:8a:de:c2:78:03:c3:
                    75:fb:8a:f7:b0:b5:3f:7c:93:2c:66:41:30:64:ea:
                    d1:a0:f6:8f:56:6e:6d:b7:86:df:80:ce:9d:32:fa:
                    83:f7:0a:81:9b:d7:ee:11:86:e2:6b:7b:c2:6a:d9:
                    fd:cf:a1:a3:5c:6a:05:79:f3:09:15:35:da:23:d6:
                    f7:eb:18:8b:53:46:ad:a4:35:11:01:4b:5e:d4:61:
                    29:19:ae:21:1e:83:b7:15:fd:10:4a:69:82:4d:0f:
                    e6:a5
                Exponent: 65537 (0x10001)
        X509v3 extensions:
            X509v3 Basic Constraints: 
                CA:FALSE
            Netscape Comment: 
                OpenSSL Generated Certificate
            X509v3 Subject Key Identifier: 
                44:F4:B9:9E:62:02:6B:E6:6F:81:84:9E:0D:85:84:34:8D:BF:E0:D6
            X509v3 Authority Key Identifier: 
                keyid:A8:F5:6A:31:F2:E7:8B:32:84:A3:95:C3:C8:9B:62:CF:3B:13:05:53

    Signature Algorithm: sha256WithRSAEncryption
         00:fe:fa:4c:35:b2:d4:4e:45:e5:a8:72:24:03:f9:e7:31:c9:
         0f:af:b0:64:22:4e:70:c8:fb:e7:15:80:f6:be:9d:fa:d6:0a:
         69:da:1b:f3:5e:d1:ad:97:e8:31:58:0b:f4:54:9c:57:3f:fa:
         56:de:08:ef:74:6f:ac:d5:26:2e:d9:34:1f:58:df:fc:10:e9:
         a7:8d:ab:da:75:e4:65:d0:35:ab:4c:90:00:59:25:94:7c:91:
         79:6b:3c:e5:0c:d7:47:64:2b:35:b0:ba:81:bc:94:02:3a:98:
         58:e6:83:8d:a8:1f:22:c2:2c:ab:f2:c0:38:9a:d9:1e:f4:65:
         ec:a3:fb:4e:56:65:2c:88:f6:6f:d1:a0:82:53:67:80:cf:64:
         bb:fe:f9:8d:c4:29:ee:81:7e:48:0d:58:87:68:bd:76:f6:44:
         c0:1e:5f:55:b0:e0:6b:f8:f9:5b:5b:e1:73:c8:b0:be:60:67:
         d8:21:ea:93:10:59:ca:66:24:a7:3e:04:f2:7d:04:71:a5:13:
         1e:ed:fc:04:c4:7e:22:92:98:99:f3:df:32:c6:38:cb:51:ca:
         8c:54:31:4f:fa:37:87:58:99:13:ab:6e:2c:0f:19:17:2d:8d:
         66:7f:9d:93:eb:eb:0e:9a:c0:71:69:20:7d:b2:d1:76:4d:cd:
         02:eb:cf:f9
-----BEGIN CERTIFICATE-----
MIID/DCCAuSgAwIBAgIBATANBgkqhkiG9w0BAQsFADCBhDELMAkGA1UEBhMCQ04x
CzAJBgNVBAgMAkJKMQswCQYDVQQHDAJCSjETMBEGA1UECgwKcWlzb2Z0IEx0ZDEP
MA0GA1UECwwGcWlzb2Z0MQ4wDAYDVQQDDAVRaXdhbjElMCMGCSqGSIb3DQEJARYW
d2FuZ2tlZmVuZ25hbWVAMTYzLmNvbTAeFw0xOTAzMDEwNzA4MjFaFw0yOTAyMjYw
NzA4MjFaMIGAMQswCQYDVQQGEwJDTjELMAkGA1UECAwCQkoxEzARBgNVBAoMCnFp
c29mdCBMdGQxDzANBgNVBAsMBnFpc29mdDEXMBUGA1UEAwwOd3d3LnFpc29mdC5j
b20xJTAjBgkqhkiG9w0BCQEWFndhbmdrZWZlbmduYW1lQDE2My5jb20wggEiMA0G
CSqGSIb3DQEBAQUAA4IBDwAwggEKAoIBAQDRJvTOj3mDFE2sweMw9a3oe2TElLPm
v5c9QIvDlvnlEEpn+EiKFo7ZLES79sstFBPTk1mfGxF/J2NGhzZFKPKpeDMzq2mB
KXQwYVxR4XVMg1G7dLuUMZXCDlohYZMwhv5EZp26nm41D8c09hQn+PZBA5aH3EJf
8paVy+dRM4K7xxmxRImNTUxP4ST0JplAVNyUHPH9AOjtsUmcYbneKorewngDw3X7
ivewtT98kyxmQTBk6tGg9o9Wbm23ht+Azp0y+oP3CoGb1+4RhuJre8Jq2f3PoaNc
agV58wkVNdoj1vfrGItTRq2kNREBS17UYSkZriEeg7cV/RBKaYJND+alAgMBAAGj
ezB5MAkGA1UdEwQCMAAwLAYJYIZIAYb4QgENBB8WHU9wZW5TU0wgR2VuZXJhdGVk
IENlcnRpZmljYXRlMB0GA1UdDgQWBBRE9LmeYgJr5m+BhJ4NhYQ0jb/g1jAfBgNV
HSMEGDAWgBSo9Wox8ueLMoSjlcPIm2LPOxMFUzANBgkqhkiG9w0BAQsFAAOCAQEA
AP76TDWy1E5F5ahyJAP55zHJD6+wZCJOcMj75xWA9r6d+tYKadob817RrZfoMVgL
9FScVz/6Vt4I73RvrNUmLtk0H1jf/BDpp42r2nXkZdA1q0yQAFkllHyReWs85QzX
R2QrNbC6gbyUAjqYWOaDjagfIsIsq/LAOJrZHvRl7KP7TlZlLIj2b9GgglNngM9k
u/75jcQp7oF+SA1Yh2i9dvZEwB5fVbDga/j5W1vhc8iwvmBn2CHqkxBZymYkpz4E
8n0EcaUTHu38BMR+IpKYmfPfMsY4y1HKjFQxT/o3h1iZE6tuLA8ZFy2NZn+dk+vr
DprAcWkgfbLRdk3NAuvP+Q==
-----END CERTIFICATE-----
